(lp0
(dp1
S'upload_date'
p2
V20150318
p3
sS'playlist'
p4
VUploads from Satwik Kansal
p5
sS'title'
p6
VMauka Mauka India vs Bangladesh ICC Cricket World Cup 2015 by Star Sports
p7
sS'url'
p8
Vhttps://r4---sn-o3o-qxal.googlevideo.com/videoplayback?itag=22&upn=UD02F8v829Y&expire=1470275646&sver=3&ratebypass=yes&source=youtube&dur=90.046&lmt=1426701044519962&requiressl=yes&fexp=9405972%2C9414875%2C9416891%2C9419452%2C9422555%2C9422596%2C9428398%2C9431012%2C9433096%2C9433221%2C9433946%2C9433995%2C9435039%2C9435526%2C9435739%2C9435876%2C9437066%2C9437553%2C9438036%2C9438327%2C9438591%2C9438660%2C9438662%2C9439541%2C9439652%2C9440171%2C9440362%2C9440880%2C9441844%2C9442424%2C9443068%2C9443269%2C9443404&key=yt6&signature=73022EB6C5AE6D2FB629529FFB089DE066C21E19.60E380B506FF9D1DC02130586DD9B6392CF24561&sparams=cnr%2Cdur%2Cei%2Cid%2Cinitcwndbps%2Cip%2Cipbits%2Citag%2Clmt%2Cmime%2Cmm%2Cmn%2Cms%2Cmv%2Cpl%2Cratebypass%2Crequiressl%2Csource%2Cupn%2Cexpire&mime=video%2Fmp4&initcwndbps=4343750&ipbits=0&mt=1470253582&mv=m&ei=3kuiV4mSIYPyogOEwJdg&ms=au&ip=14.139.251.107&cnr=14&pl=19&mm=31&mn=sn-o3o-qxal&id=o-APboGGjOfzwgmtkKF8ZQJ824y612Tt8bAzQ_dUTzRrYq
p9
sS'id'
p10
Vd31tZ5bVpec
p11
sS'playlist_titile'
p12
g5
sa(dp13
g2
V20150219
p14
sg4
g5
sg6
V2nd Advertisement India vs South Africa   ICC Cricket World Cup 2015
p15
sg8
Vhttps://r5---sn-o3o-qxal.googlevideo.com/videoplayback?requiressl=yes&dur=66.710&id=o-AL4hXz3oRpZodg5gJEquExz8ycgaYslFt5hAXkIMyX0o&mn=sn-o3o-qxal&pl=19&mm=31&fexp=9405972%2C9414875%2C9416891%2C9419452%2C9422555%2C9422596%2C9428398%2C9431012%2C9433096%2C9433221%2C9433946%2C9433995%2C9435039%2C9435526%2C9435739%2C9435876%2C9437066%2C9437553%2C9438036%2C9438327%2C9438591%2C9438660%2C9438662%2C9439541%2C9439652%2C9440171%2C9440362%2C9440880%2C9441844%2C9442424%2C9443068%2C9443269%2C9443404&ms=au&mv=m&mt=1470253582&ip=14.139.251.107&ei=4kuiV9S1GNeqoAOc5YKoCg&itag=22&cnr=14&source=youtube&upn=-8yUDj4edjg&ratebypass=yes&signature=23E0F90457EFAB1B02028AF17B5DEC5FACFEFC4E.A9497C5E491B03AB326459E68E33427AD6C0ECC9&key=yt6&mime=video%2Fmp4&initcwndbps=4343750&sver=3&lmt=1424369140024303&expire=1470275650&ipbits=0&sparams=cnr%2Cdur%2Cei%2Cid%2Cinitcwndbps%2Cip%2Cipbits%2Citag%2Clmt%2Cmime%2Cmm%2Cmn%2Cms%2Cmv%2Cpl%2Cratebypass%2Crequiressl%2Csource%2Cupn%2Cexpire
p16
sg10
VhMXBqxDTGko
p17
sg12
g5
sa.