(lp0
(dp1
S'upload_date'
p2
V20150318
p3
sS'playlist'
p4
VUploads from Satwik Kansal
p5
sS'title'
p6
VMauka Mauka India vs Bangladesh ICC Cricket World Cup 2015 by Star Sports
p7
sS'url'
p8
Vhttps://r4---sn-o3o-qxal.googlevideo.com/videoplayback?pl=19&mime=video%2Fmp4&source=youtube&key=yt6&sver=3&requiressl=yes&upn=DREvcKCTnJg&lmt=1426701044519962&ip=14.139.251.107&ms=au&dur=90.046&mv=m&mt=1470256483&id=o-AMM5pL0Bt6kFqVmhxrt9JcQQualeDIUbIjikQwXICvip&mn=sn-o3o-qxal&mm=31&ipbits=0&initcwndbps=4157500&expire=1470278539&cnr=14&sparams=cnr%2Cdur%2Cei%2Cid%2Cinitcwndbps%2Cip%2Cipbits%2Citag%2Clmt%2Cmime%2Cmm%2Cmn%2Cms%2Cmv%2Cpl%2Cratebypass%2Crequiressl%2Csource%2Cupn%2Cexpire&itag=22&ei=K1eiV-70Cc-toAPSw5zQCw&signature=0C54F7CB01606238EA98E8BAD26021047BE1F975.38D5C0656F5B87848839FBC2772BBDBB8CB29CD2&ratebypass=yes&fexp=9412913%2C9416891%2C9419452%2C9422596%2C9427543%2C9428398%2C9431012%2C9433096%2C9433380%2C9433946%2C9435526%2C9435876%2C9437066%2C9437553%2C9437671%2C9437919%2C9438327%2C9438479%2C9438662%2C9438735%2C9439328%2C9439652%2C9440492%2C9440549%2C9440672%2C9440880%2C9442424%2C9443115%2C9443185%2C9443425
p9
sS'id'
p10
Vd31tZ5bVpec
p11
sS'playlist_titile'
p12
g5
sa(dp13
g2
V20150219
p14
sg4
g5
sg6
V2nd Advertisement India vs South Africa   ICC Cricket World Cup 2015
p15
sg8
Vhttps://r5---sn-o3o-qxal.googlevideo.com/videoplayback?ipbits=0&dur=66.710&sver=3&ratebypass=yes&expire=1470278543&fexp=9412913%2C9416891%2C9419452%2C9422596%2C9427543%2C9428398%2C9431012%2C9433096%2C9433380%2C9433946%2C9435526%2C9435876%2C9437066%2C9437553%2C9437671%2C9437919%2C9438327%2C9438479%2C9438662%2C9438735%2C9439328%2C9439652%2C9440492%2C9440549%2C9440672%2C9440880%2C9442424%2C9443115%2C9443185%2C9443425&initcwndbps=4157500&mime=video%2Fmp4&key=yt6&signature=7184FB68590E42C3DE5539B87EBDA05627E586A7.BADA20C642DCD4744C239DA57BFB3B46E367ECFA&lmt=1424369140024303&source=youtube&upn=gFglxA6pFqU&cnr=14&ei=L1eiV56SBYSBowPUpJuYDA&ip=14.139.251.107&requiressl=yes&mt=1470256483&mv=m&sparams=cnr%2Cdur%2Cei%2Cid%2Cinitcwndbps%2Cip%2Cipbits%2Citag%2Clmt%2Cmime%2Cmm%2Cmn%2Cms%2Cmv%2Cpl%2Cratebypass%2Crequiressl%2Csource%2Cupn%2Cexpire&ms=au&mm=31&mn=sn-o3o-qxal&id=o-AEcN14i_bPv7BfL00SM9kyzbbG4FMQlJiFN-t6AMzths&itag=22&pl=19
p16
sg10
VhMXBqxDTGko
p17
sg12
g5
sa(dp18
g2
I20150990
sg4
S'abc'
p19
sg6
S'Sample Video'
p20
sg8
S'http://satwikkansal.xyz'
p21
sg10
S'xyz'
p22
sS'playlist_title'
p23
S'Motivators of the century'
p24
sa.